target datalayout = "e-m:e-p270:32:32-p271:32:32-p272:64:64-i64:64-i128:128-f80:128-n8:16:32:64-S128"
target triple = "x86_64-pc-linux-gnu"

%struct.Fraig_HashTableStruct_t_ = type { ptr, i32, i32 }
%struct.Fraig_ManStruct_t_ = type { ptr, ptr, ptr, ptr, ptr, ptr, ptr, ptr, ptr, i32, i32, i32, i32, i32, i32, i32, i32, i32, i32, i32, i32, i64, i32, i32, i32, i32, i32, ptr, ptr, ptr, ptr, ptr, i32, ptr, ptr, ptr, ptr, ptr, ptr, i32, ptr, ptr, ptr, ptr, i32, i32, i32, i32, i32, i32, i32, i32, i32, i32, i32, i32, i32, i32, i32, i32, i32, i32, i32, i64, i64, i64, i64, i64, i64, i64, i64, i64, i64, i64, i64 }
%struct.Fraig_NodeStruct_t_ = type { i32, i32, i32, i32, i32, i32, i32, ptr, ptr, ptr, ptr, ptr, ptr, ptr, ptr, i32, i32, ptr, ptr, ptr, ptr, ptr, ptr, ptr }

; Function Attrs: nounwind uwtable
define i32 @Fraig_TableRehashF0(ptr noundef %0, i32 noundef %1) #0 {
  %3 = alloca ptr, align 8
  %4 = alloca i32, align 4
  %5 = alloca ptr, align 8
  %6 = alloca ptr, align 8
  %7 = alloca ptr, align 8
  %8 = alloca ptr, align 8
  %9 = alloca ptr, align 8
  %10 = alloca ptr, align 8
  %11 = alloca ptr, align 8
  %12 = alloca i32, align 4
  %13 = alloca i32, align 4
  %14 = alloca i32, align 4
  %15 = alloca i32, align 4
  store ptr %0, ptr %3, align 8, !tbaa !17
  store i32 %1, ptr %4, align 4, !tbaa !3
  call void @llvm.lifetime.start.p0(i64 8, ptr %5) #7
  %16 = load ptr, ptr %3, align 8, !tbaa !17
  %17 = getelementptr inbounds nuw %struct.Fraig_ManStruct_t_, ptr %16, i32 0, i32 8
  %18 = load ptr, ptr %17, align 8, !tbaa !58
  store ptr %18, ptr %5, align 8, !tbaa !7
  call void @llvm.lifetime.start.p0(i64 8, ptr %6) #7
  call void @llvm.lifetime.start.p0(i64 8, ptr %7) #7
  call void @llvm.lifetime.start.p0(i64 8, ptr %8) #7
  call void @llvm.lifetime.start.p0(i64 8, ptr %9) #7
  call void @llvm.lifetime.start.p0(i64 8, ptr %10) #7
  call void @llvm.lifetime.start.p0(i64 8, ptr %11) #7
  call void @llvm.lifetime.start.p0(i64 4, ptr %12) #7
  call void @llvm.lifetime.start.p0(i64 4, ptr %13) #7
  call void @llvm.lifetime.start.p0(i64 4, ptr %14) #7
  call void @llvm.lifetime.start.p0(i64 4, ptr %15) #7
  %19 = load ptr, ptr %5, align 8, !tbaa !7
  %20 = getelementptr inbounds nuw %struct.Fraig_HashTableStruct_t_, ptr %19, i32 0, i32 1
  %21 = load i32, ptr %20, align 8, !tbaa !10
  %22 = sext i32 %21 to i64
  %23 = mul i64 8, %22
  %24 = call noalias ptr @malloc(i64 noundef %23) #8
  store ptr %24, ptr %6, align 8, !tbaa !21
  %25 = load ptr, ptr %6, align 8, !tbaa !21
  %26 = load ptr, ptr %5, align 8, !tbaa !7
  %27 = getelementptr inbounds nuw %struct.Fraig_HashTableStruct_t_, ptr %26, i32 0, i32 1
  %28 = load i32, ptr %27, align 8, !tbaa !10
  %29 = sext i32 %28 to i64
  %30 = mul i64 8, %29
  call void @llvm.memset.p0.i64(ptr align 8 %25, i8 0, i64 %30, i1 false)
  store i32 0, ptr %13, align 4, !tbaa !3
  store i32 0, ptr %12, align 4, !tbaa !3
  store i32 0, ptr %14, align 4, !tbaa !3
  br label %31

31:                                               ; preds = %160, %2
  %32 = load i32, ptr %14, align 4, !tbaa !3
  %33 = load ptr, ptr %5, align 8, !tbaa !7
  %34 = getelementptr inbounds nuw %struct.Fraig_HashTableStruct_t_, ptr %33, i32 0, i32 1
  %35 = load i32, ptr %34, align 8, !tbaa !10
  %36 = icmp slt i32 %32, %35
  br i1 %36, label %37, label %163

37:                                               ; preds = %31
  %38 = load ptr, ptr %5, align 8, !tbaa !7
  %39 = getelementptr inbounds nuw %struct.Fraig_HashTableStruct_t_, ptr %38, i32 0, i32 0
  %40 = load ptr, ptr %39, align 8, !tbaa !13
  %41 = load i32, ptr %14, align 4, !tbaa !3
  %42 = sext i32 %41 to i64
  %43 = getelementptr inbounds ptr, ptr %40, i64 %42
  %44 = load ptr, ptr %43, align 8, !tbaa !19
  store ptr %44, ptr %7, align 8, !tbaa !19
  %45 = load ptr, ptr %7, align 8, !tbaa !19
  %46 = icmp ne ptr %45, null
  br i1 %46, label %47, label %51

47:                                               ; preds = %37
  %48 = load ptr, ptr %7, align 8, !tbaa !19
  %49 = getelementptr inbounds nuw %struct.Fraig_NodeStruct_t_, ptr %48, i32 0, i32 11
  %50 = load ptr, ptr %49, align 8, !tbaa !49
  br label %52

51:                                               ; preds = %37
  br label %52

52:                                               ; preds = %51, %47
  %53 = phi ptr [ %50, %47 ], [ null, %51 ]
  store ptr %53, ptr %8, align 8, !tbaa !19
  br label %54

54:                                               ; preds = %157, %52
  %55 = load ptr, ptr %7, align 8, !tbaa !19
  %56 = icmp ne ptr %55, null
  br i1 %56, label %57, label %159

57:                                               ; preds = %54
  %58 = load ptr, ptr %7, align 8, !tbaa !19
  store ptr %58, ptr %9, align 8, !tbaa !19
  %59 = load ptr, ptr %9, align 8, !tbaa !19
  %60 = icmp ne ptr %59, null
  br i1 %60, label %61, label %65

61:                                               ; preds = %57
  %62 = load ptr, ptr %9, align 8, !tbaa !19
  %63 = getelementptr inbounds nuw %struct.Fraig_NodeStruct_t_, ptr %62, i32 0, i32 12
  %64 = load ptr, ptr %63, align 8, !tbaa !47
  br label %66

65:                                               ; preds = %57
  br label %66

66:                                               ; preds = %65, %61
  %67 = phi ptr [ %64, %61 ], [ null, %65 ]
  store ptr %67, ptr %10, align 8, !tbaa !19
  br label %68

68:                                               ; preds = %145, %66
  %69 = load ptr, ptr %9, align 8, !tbaa !19
  %70 = icmp ne ptr %69, null
  br i1 %70, label %71, label %147

71:                                               ; preds = %68
  %72 = load ptr, ptr %9, align 8, !tbaa !19
  %73 = getelementptr inbounds nuw %struct.Fraig_NodeStruct_t_, ptr %72, i32 0, i32 16
  %74 = load i32, ptr %73, align 4, !tbaa !53
  %75 = load ptr, ptr %5, align 8, !tbaa !7
  %76 = getelementptr inbounds nuw %struct.Fraig_HashTableStruct_t_, ptr %75, i32 0, i32 1
  %77 = load i32, ptr %76, align 8, !tbaa !10
  %78 = urem i32 %74, %77
  store i32 %78, ptr %15, align 4, !tbaa !3
  %79 = load i32, ptr %4, align 4, !tbaa !3
  %80 = icmp ne i32 %79, 0
  br i1 %80, label %81, label %119

81:                                               ; preds = %71
  %82 = load ptr, ptr %6, align 8, !tbaa !21
  %83 = load i32, ptr %15, align 4, !tbaa !3
  %84 = zext i32 %83 to i64
  %85 = getelementptr inbounds nuw ptr, ptr %82, i64 %84
  %86 = load ptr, ptr %85, align 8, !tbaa !19
  store ptr %86, ptr %11, align 8, !tbaa !19
  br label %87

87:                                               ; preds = %110, %81
  %88 = load ptr, ptr %11, align 8, !tbaa !19
  %89 = icmp ne ptr %88, null
  br i1 %89, label %90, label %114

90:                                               ; preds = %87
  %91 = load ptr, ptr %9, align 8, !tbaa !19
  %92 = getelementptr inbounds nuw %struct.Fraig_NodeStruct_t_, ptr %91, i32 0, i32 16
  %93 = load i32, ptr %92, align 4, !tbaa !53
  %94 = load ptr, ptr %11, align 8, !tbaa !19
  %95 = getelementptr inbounds nuw %struct.Fraig_NodeStruct_t_, ptr %94, i32 0, i32 16
  %96 = load i32, ptr %95, align 4, !tbaa !53
  %97 = icmp ne i32 %93, %96
  br i1 %97, label %98, label %99

98:                                               ; preds = %90
  br label %110

99:                                               ; preds = %90
  %100 = load ptr, ptr %11, align 8, !tbaa !19
  %101 = getelementptr inbounds nuw %struct.Fraig_NodeStruct_t_, ptr %100, i32 0, i32 12
  %102 = load ptr, ptr %101, align 8, !tbaa !47
  %103 = load ptr, ptr %9, align 8, !tbaa !19
  %104 = getelementptr inbounds nuw %struct.Fraig_NodeStruct_t_, ptr %103, i32 0, i32 12
  store ptr %102, ptr %104, align 8, !tbaa !47
  %105 = load ptr, ptr %9, align 8, !tbaa !19
  %106 = load ptr, ptr %11, align 8, !tbaa !19
  %107 = getelementptr inbounds nuw %struct.Fraig_NodeStruct_t_, ptr %106, i32 0, i32 12
  store ptr %105, ptr %107, align 8, !tbaa !47
  store i32 1, ptr %12, align 4, !tbaa !3
  %108 = load i32, ptr %13, align 4, !tbaa !3
  %109 = add nsw i32 %108, 1
  store i32 %109, ptr %13, align 4, !tbaa !3
  br label %114

110:                                              ; preds = %98
  %111 = load ptr, ptr %11, align 8, !tbaa !19
  %112 = getelementptr inbounds nuw %struct.Fraig_NodeStruct_t_, ptr %111, i32 0, i32 11
  %113 = load ptr, ptr %112, align 8, !tbaa !49
  store ptr %113, ptr %11, align 8, !tbaa !19
  br label %87, !llvm.loop !77

114:                                              ; preds = %99, %87
  %115 = load ptr, ptr %11, align 8, !tbaa !19
  %116 = icmp ne ptr %115, null
  br i1 %116, label %117, label %118

117:                                              ; preds = %114
  br label %136

118:                                              ; preds = %114
  br label %119

119:                                              ; preds = %118, %71
  %120 = load ptr, ptr %6, align 8, !tbaa !21
  %121 = load i32, ptr %15, align 4, !tbaa !3
  %122 = zext i32 %121 to i64
  %123 = getelementptr inbounds nuw ptr, ptr %120, i64 %122
  %124 = load ptr, ptr %123, align 8, !tbaa !19
  %125 = load ptr, ptr %9, align 8, !tbaa !19
  %126 = getelementptr inbounds nuw %struct.Fraig_NodeStruct_t_, ptr %125, i32 0, i32 11
  store ptr %124, ptr %126, align 8, !tbaa !49
  %127 = load ptr, ptr %9, align 8, !tbaa !19
  %128 = load ptr, ptr %6, align 8, !tbaa !21
  %129 = load i32, ptr %15, align 4, !tbaa !3
  %130 = zext i32 %129 to i64
  %131 = getelementptr inbounds nuw ptr, ptr %128, i64 %130
  store ptr %127, ptr %131, align 8, !tbaa !19
  %132 = load ptr, ptr %9, align 8, !tbaa !19
  %133 = getelementptr inbounds nuw %struct.Fraig_NodeStruct_t_, ptr %132, i32 0, i32 12
  store ptr null, ptr %133, align 8, !tbaa !47
  %134 = load i32, ptr %13, align 4, !tbaa !3
  %135 = add nsw i32 %134, 1
  store i32 %135, ptr %13, align 4, !tbaa !3
  br label %136

136:                                              ; preds = %119, %117
  %137 = load ptr, ptr %10, align 8, !tbaa !19
  store ptr %137, ptr %9, align 8, !tbaa !19
  %138 = load ptr, ptr %9, align 8, !tbaa !19
  %139 = icmp ne ptr %138, null
  br i1 %139, label %140, label %144

140:                                              ; preds = %136
  %141 = load ptr, ptr %9, align 8, !tbaa !19
  %142 = getelementptr inbounds nuw %struct.Fraig_NodeStruct_t_, ptr %141, i32 0, i32 12
  %143 = load ptr, ptr %142, align 8, !tbaa !47
  br label %145

144:                                              ; preds = %136
  br label %145

145:                                              ; preds = %144, %140
  %146 = phi ptr [ %143, %140 ], [ null, %144 ]
  store ptr %146, ptr %10, align 8, !tbaa !19
  br label %68, !llvm.loop !78

147:                                              ; preds = %68
  br label %148

148:                                              ; preds = %147
  %149 = load ptr, ptr %8, align 8, !tbaa !19
  store ptr %149, ptr %7, align 8, !tbaa !19
  %150 = load ptr, ptr %7, align 8, !tbaa !19
  %151 = icmp ne ptr %150, null
  br i1 %151, label %152, label %156

152:                                              ; preds = %148
  %153 = load ptr, ptr %7, align 8, !tbaa !19
  %154 = getelementptr inbounds nuw %struct.Fraig_NodeStruct_t_, ptr %153, i32 0, i32 11
  %155 = load ptr, ptr %154, align 8, !tbaa !49
  br label %157

156:                                              ; preds = %148
  br label %157

157:                                              ; preds = %156, %152
  %158 = phi ptr [ %155, %152 ], [ null, %156 ]
  store ptr %158, ptr %8, align 8, !tbaa !19
  br label %54, !llvm.loop !79

159:                                              ; preds = %54
  br label %160

160:                                              ; preds = %159
  %161 = load i32, ptr %14, align 4, !tbaa !3
  %162 = add nsw i32 %161, 1
  store i32 %162, ptr %14, align 4, !tbaa !3
  br label %31, !llvm.loop !80

163:                                              ; preds = %31
  %164 = load ptr, ptr %5, align 8, !tbaa !7
  %165 = getelementptr inbounds nuw %struct.Fraig_HashTableStruct_t_, ptr %164, i32 0, i32 0
  %166 = load ptr, ptr %165, align 8, !tbaa !13
  %167 = icmp ne ptr %166, null
  br i1 %167, label %168, label %174

168:                                              ; preds = %163
  %169 = load ptr, ptr %5, align 8, !tbaa !7
  %170 = getelementptr inbounds nuw %struct.Fraig_HashTableStruct_t_, ptr %169, i32 0, i32 0
  %171 = load ptr, ptr %170, align 8, !tbaa !13
  call void @free(ptr noundef %171) #7
  %172 = load ptr, ptr %5, align 8, !tbaa !7
  %173 = getelementptr inbounds nuw %struct.Fraig_HashTableStruct_t_, ptr %172, i32 0, i32 0
  store ptr null, ptr %173, align 8, !tbaa !13
  br label %175

174:                                              ; preds = %163
  br label %175

175:                                              ; preds = %174, %168
  %176 = load ptr, ptr %6, align 8, !tbaa !21
  %177 = load ptr, ptr %5, align 8, !tbaa !7
  %178 = getelementptr inbounds nuw %struct.Fraig_HashTableStruct_t_, ptr %177, i32 0, i32 0
  store ptr %176, ptr %178, align 8, !tbaa !13
  %179 = load i32, ptr %12, align 4, !tbaa !3
  call void @llvm.lifetime.end.p0(i64 4, ptr %15) #7
  call void @llvm.lifetime.end.p0(i64 4, ptr %14) #7
  call void @llvm.lifetime.end.p0(i64 4, ptr %13) #7
  call void @llvm.lifetime.end.p0(i64 4, ptr %12) #7
  call void @llvm.lifetime.end.p0(i64 8, ptr %11) #7
  call void @llvm.lifetime.end.p0(i64 8, ptr %10) #7
  call void @llvm.lifetime.end.p0(i64 8, ptr %9) #7
  call void @llvm.lifetime.end.p0(i64 8, ptr %8) #7
  call void @llvm.lifetime.end.p0(i64 8, ptr %7) #7
  call void @llvm.lifetime.end.p0(i64 8, ptr %6) #7
  call void @llvm.lifetime.end.p0(i64 8, ptr %5) #7
  ret i32 %179
}