; Function Attrs: nounwind uwtable
define range(i32 0, 2) i32 @Fraig_TableRehashF0(ptr noundef readonly captures(none) %0, i32 noundef %1) local_unnamed_addr #4 {
  %3 = getelementptr inbounds nuw i8, ptr %0, i64 64
  %4 = load ptr, ptr %3, align 8, !tbaa !53
  %5 = getelementptr inbounds nuw i8, ptr %4, i64 8
  %6 = load i32, ptr %5, align 8, !tbaa !6
  %7 = sext i32 %6 to i64
  %8 = shl nsw i64 %7, 3
  %calloc = tail call ptr @calloc(i64 1, i64 %8)
  %9 = icmp sgt i32 %6, 0
  %.pre = load ptr, ptr %4, align 8, !tbaa !13
  br i1 %9, label %.lr.ph98, label %._crit_edge99

.lr.ph98:                                         ; preds = %2
  %.not68 = icmp eq i32 %1, 0
  %wide.trip.count107 = zext nneg i32 %6 to i64
  br i1 %.not68, label %.lr.ph98.split.us, label %.lr.ph98.split

.lr.ph98.split.us:                                ; preds = %.lr.ph98, %._crit_edge.split.us.us
  %indvars.iv104 = phi i64 [ %indvars.iv.next105, %._crit_edge.split.us.us ], [ 0, %.lr.ph98 ]
  %10 = getelementptr inbounds nuw ptr, ptr %.pre, i64 %indvars.iv104
  %11 = load ptr, ptr %10, align 8, !tbaa !29
  %.not64.us = icmp eq ptr %11, null
  br i1 %.not64.us, label %._crit_edge.split.us.us, label %.split.us.us.us

._crit_edge.split.us.us:                          ; preds = %.split83.us.us.us, %.lr.ph98.split.us
  %indvars.iv.next105 = add nuw nsw i64 %indvars.iv104, 1
  %exitcond108.not = icmp eq i64 %indvars.iv.next105, %wide.trip.count107
  br i1 %exitcond108.not, label %._crit_edge99, label %.lr.ph98.split.us, !llvm.loop !70

.split.us.us.us:                                  ; preds = %.lr.ph98.split.us, %.split83.us.us.us
  %.sink116 = phi ptr [ %13, %.split83.us.us.us ], [ %11, %.lr.ph98.split.us ]
  %12 = getelementptr inbounds nuw i8, ptr %.sink116, i64 64
  %13 = load ptr, ptr %12, align 8, !tbaa !50
  br label %.thread.us.us.us

.thread.us.us.us:                                 ; preds = %.thread.us.us.us, %.split.us.us.us
  %.sink117 = phi ptr [ %.sink116, %.split.us.us.us ], [ %15, %.thread.us.us.us ]
  %14 = getelementptr inbounds nuw i8, ptr %.sink117, i64 72
  %15 = load ptr, ptr %14, align 8, !tbaa !47
  %16 = getelementptr inbounds nuw i8, ptr %.sink117, i64 100
  %17 = load i32, ptr %16, align 4, !tbaa !45
  %18 = urem i32 %17, %6
  %19 = zext nneg i32 %18 to i64
  %20 = getelementptr inbounds nuw ptr, ptr %calloc, i64 %19
  %21 = load ptr, ptr %20, align 8, !tbaa !29
  %22 = getelementptr inbounds nuw i8, ptr %.sink117, i64 64
  store ptr %21, ptr %22, align 8, !tbaa !50
  store ptr %.sink117, ptr %20, align 8, !tbaa !29
  %23 = getelementptr inbounds nuw i8, ptr %.sink117, i64 72
  store ptr null, ptr %23, align 8, !tbaa !47
  %.not71.us.us.us = icmp eq ptr %15, null
  br i1 %.not71.us.us.us, label %.split83.us.us.us, label %.thread.us.us.us, !llvm.loop !71

.split83.us.us.us:                                ; preds = %.thread.us.us.us
  %.not67.us.us = icmp eq ptr %13, null
  br i1 %.not67.us.us, label %._crit_edge.split.us.us, label %.split.us.us.us, !llvm.loop !72

.lr.ph98.split:                                   ; preds = %.lr.ph98, %._crit_edge.split
  %indvars.iv = phi i64 [ %indvars.iv.next, %._crit_edge.split ], [ 0, %.lr.ph98 ]
  %.05294 = phi i32 [ %.153.lcssa, %._crit_edge.split ], [ 0, %.lr.ph98 ]
  %24 = getelementptr inbounds nuw ptr, ptr %.pre, i64 %indvars.iv
  %25 = load ptr, ptr %24, align 8, !tbaa !29
  %.not64 = icmp eq ptr %25, null
  br i1 %.not64, label %._crit_edge.split, label %.split

.split:                                           ; preds = %.lr.ph98.split, %.split83
  %.sink118 = phi ptr [ %27, %.split83 ], [ %25, %.lr.ph98.split ]
  %.15387 = phi i32 [ %.557, %.split83 ], [ %.05294, %.lr.ph98.split ]
  %26 = getelementptr inbounds nuw i8, ptr %.sink118, i64 64
  %27 = load ptr, ptr %26, align 8, !tbaa !50
  br label %28

28:                                               ; preds = %46, %.split
  %.sink119 = phi ptr [ %.sink118, %.split ], [ %30, %46 ]
  %.25480 = phi i32 [ %.15387, %.split ], [ %.557, %46 ]
  %29 = getelementptr inbounds nuw i8, ptr %.sink119, i64 72
  %30 = load ptr, ptr %29, align 8, !tbaa !47
  %31 = getelementptr inbounds nuw i8, ptr %.sink119, i64 100
  %32 = load i32, ptr %31, align 4, !tbaa !45
  %33 = urem i32 %32, %6
  %34 = zext nneg i32 %33 to i64
  %35 = getelementptr inbounds nuw ptr, ptr %calloc, i64 %34
  %.05875 = load ptr, ptr %35, align 8, !tbaa !29
  %.not6976 = icmp eq ptr %.05875, null
  br i1 %.not6976, label %.thread.loopexit, label %.lr.ph

.lr.ph:                                           ; preds = %28, %38
  %.05877 = phi ptr [ %.058, %38 ], [ %.05875, %28 ]
  %36 = getelementptr inbounds nuw i8, ptr %.05877, i64 100
  %37 = load i32, ptr %36, align 4, !tbaa !45
  %.not70 = icmp eq i32 %32, %37
  br i1 %.not70, label %40, label %38

38:                                               ; preds = %.lr.ph
  %39 = getelementptr inbounds nuw i8, ptr %.05877, i64 64
  %.058 = load ptr, ptr %39, align 8, !tbaa !29
  %.not69 = icmp eq ptr %.058, null
  br i1 %.not69, label %.thread.loopexit, label %.lr.ph, !llvm.loop !73

40:                                               ; preds = %.lr.ph
  %41 = getelementptr inbounds nuw i8, ptr %.05877, i64 72
  %42 = load ptr, ptr %41, align 8, !tbaa !47
  %43 = getelementptr inbounds nuw i8, ptr %.sink119, i64 72
  store ptr %42, ptr %43, align 8, !tbaa !47
  store ptr %.sink119, ptr %41, align 8, !tbaa !47
  br label %46

.thread.loopexit:                                 ; preds = %38, %28
  %44 = getelementptr inbounds nuw i8, ptr %.sink119, i64 64
  store ptr %.05875, ptr %44, align 8, !tbaa !50
  store ptr %.sink119, ptr %35, align 8, !tbaa !29
  %45 = getelementptr inbounds nuw i8, ptr %.sink119, i64 72
  store ptr null, ptr %45, align 8, !tbaa !47
  br label %46

46:                                               ; preds = %40, %.thread.loopexit
  %.557 = phi i32 [ 1, %40 ], [ %.25480, %.thread.loopexit ]
  %.not71 = icmp eq ptr %30, null
  br i1 %.not71, label %.split83, label %28, !llvm.loop !71

.split83:                                         ; preds = %46
  %.not67 = icmp eq ptr %27, null
  br i1 %.not67, label %._crit_edge.split, label %.split, !llvm.loop !72

._crit_edge.split:                                ; preds = %.split83, %.lr.ph98.split
  %.153.lcssa = phi i32 [ %.05294, %.lr.ph98.split ], [ %.557, %.split83 ]
  %indvars.iv.next = add nuw nsw i64 %indvars.iv, 1
  %exitcond.not = icmp eq i64 %indvars.iv.next, %wide.trip.count107
  br i1 %exitcond.not, label %._crit_edge99, label %.lr.ph98.split, !llvm.loop !70

._crit_edge99:                                    ; preds = %._crit_edge.split, %._crit_edge.split.us.us, %2
  %.052.lcssa = phi i32 [ 0, %2 ], [ 0, %._crit_edge.split.us.us ], [ %.153.lcssa, %._crit_edge.split ]
  %.not = icmp eq ptr %.pre, null
  br i1 %.not, label %48, label %47

47:                                               ; preds = %._crit_edge99
  tail call void @free(ptr noundef nonnull %.pre) #14
  br label %48

48:                                               ; preds = %._crit_edge99, %47
  store ptr %calloc, ptr %4, align 8, !tbaa !13
  ret i32 %.052.lcssa
}